; Listing generated by Microsoft (R) Optimizing Compiler Version 19.41.34120.0 

include listing.inc

INCLUDELIB LIBCMT
INCLUDELIB OLDNAMES

CONST	SEGMENT
CHACHA_CONSTANTS DD 061707865H
	DD	03320646eH
	DD	079622d32H
	DD	06b206574H
CONST	ENDS
PUBLIC	chacha20_crypt
PUBLIC	chacha20_block_export
PUBLIC	chacha20_crypt_unroll
PUBLIC	chacha20_noop
PUBLIC	chacha20_version
EXTRN	__GSHandlerCheck:PROC
EXTRN	__security_check_cookie:PROC
EXTRN	__security_cookie:QWORD
;	COMDAT pdata
pdata	SEGMENT
$pdata$chacha20_block DD imagerel chacha20_block
	DD	imagerel chacha20_block+1330
	DD	imagerel $unwind$chacha20_block
pdata	ENDS
;	COMDAT pdata
pdata	SEGMENT
$pdata$chacha20_crypt DD imagerel $LN46
	DD	imagerel $LN46+78
	DD	imagerel $unwind$chacha20_crypt
pdata	ENDS
;	COMDAT pdata
pdata	SEGMENT
$pdata$1$chacha20_crypt DD imagerel $LN46+78
	DD	imagerel $LN46+566
	DD	imagerel $chain$1$chacha20_crypt
pdata	ENDS
;	COMDAT pdata
pdata	SEGMENT
$pdata$2$chacha20_crypt DD imagerel $LN46+566
	DD	imagerel $LN46+596
	DD	imagerel $chain$2$chacha20_crypt
pdata	ENDS
;	COMDAT pdata
pdata	SEGMENT
$pdata$chacha20_crypt_unroll DD imagerel $LN135
	DD	imagerel $LN135+1675
	DD	imagerel $unwind$chacha20_crypt_unroll
pdata	ENDS
;	COMDAT xdata
xdata	SEGMENT
$unwind$chacha20_crypt_unroll DD 0a2201H
	DD	01b0122H
	DD	0e014f016H
	DD	0c010d012H
	DD	0600d700eH
	DD	0500b300cH
xdata	ENDS
;	COMDAT xdata
xdata	SEGMENT
$chain$2$chacha20_crypt DD 021H
	DD	imagerel $LN46
	DD	imagerel $LN46+78
	DD	imagerel $unwind$chacha20_crypt
xdata	ENDS
;	COMDAT xdata
xdata	SEGMENT
$chain$1$chacha20_crypt DD 040821H
	DD	010e408H
	DD	0195404H
	DD	imagerel $LN46
	DD	imagerel $LN46+78
	DD	imagerel $unwind$chacha20_crypt
xdata	ENDS
;	COMDAT xdata
xdata	SEGMENT
$unwind$chacha20_crypt DD 082219H
	DD	0110113H
	DD	0d00af00cH
	DD	07006c008H
	DD	030046005H
	DD	imagerel __GSHandlerCheck
	DD	070H
xdata	ENDS
;	COMDAT xdata
xdata	SEGMENT
$unwind$chacha20_block DD 0d3219H
	DD	0217424H
	DD	0206424H
	DD	01f3424H
	DD	0180124H
	DD	0e016f018H
	DD	0c012d014H
	DD	05010H
	DD	imagerel __GSHandlerCheck
	DD	0b0H
xdata	ENDS
; Function compile flags: /Ogtpy
;	COMDAT chacha20_version
_TEXT	SEGMENT
chacha20_version PROC					; COMDAT
; File C:\MyDartProjects\asmjit\benchmark\asmjit\native\chacha20_impl.c
; Line 222
	mov	eax, 16777216				; 01000000H
; Line 223
	ret	0
chacha20_version ENDP
_TEXT	ENDS
; Function compile flags: /Ogtpy
;	COMDAT chacha20_noop
_TEXT	SEGMENT
chacha20_noop PROC					; COMDAT
; File C:\MyDartProjects\asmjit\benchmark\asmjit\native\chacha20_impl.c
; Line 218
	ret	0
chacha20_noop ENDP
_TEXT	ENDS
; Function compile flags: /Ogtpy
;	COMDAT chacha20_crypt_unroll
_TEXT	SEGMENT
working$ = 0
tv2757 = 64
tv2628 = 68
tv2739 = 72
tv2743 = 76
tv2625 = 80
k0$1$ = 84
k1$1$ = 88
k2$1$ = 92
k3$1$ = 96
k4$1$ = 100
k5$1$ = 104
k6$1$ = 108
k7$1$ = 112
n0$1$ = 116
n1$1$ = 120
offset$1$ = 128
tv2693 = 136
state$ = 144
output$ = 288
input$ = 296
length$ = 304
key$ = 312
working$6$ = 312
working$15$ = 312
nonce$ = 320
n2$1$ = 320
initial_counter$ = 328
chacha20_crypt_unroll PROC				; COMDAT
; File C:\MyDartProjects\asmjit\benchmark\asmjit\native\chacha20_impl.c
; Line 143
$LN135:
	mov	QWORD PTR [rsp+24], r8
	mov	QWORD PTR [rsp+8], rcx
	push	rbp
	push	rbx
	push	rsi
	push	rdi
	push	r12
	push	r13
	push	r14
	push	r15
	lea	rbp, QWORD PTR [rsp-15]
	sub	rsp, 216				; 000000d8H
; Line 27
	movzx	eax, BYTE PTR [r9+2]
; Line 143
	mov	r8, rdx
; Line 27
	movzx	r10d, BYTE PTR [r9+3]
; Line 143
	mov	rdx, rcx
; Line 27
	movzx	r11d, BYTE PTR [r9+7]
	movzx	ebx, BYTE PTR [r9+11]
	movzx	edi, BYTE PTR [r9+15]
	movzx	esi, BYTE PTR [r9+19]
	movzx	r14d, BYTE PTR [r9+23]
	movzx	r15d, BYTE PTR [r9+27]
	movzx	r12d, BYTE PTR [r9+31]
	shl	r10d, 8
	or	r10d, eax
	shl	r11d, 8
	movzx	eax, BYTE PTR [r9+1]
	shl	ebx, 8
	shl	edi, 8
	shl	esi, 8
	shl	r14d, 8
	shl	r10d, 8
	or	r10d, eax
	shl	r15d, 8
	movzx	eax, BYTE PTR [r9]
	shl	r10d, 8
	or	r10d, eax
; Line 148
	mov	QWORD PTR offset$1$[rbp-201], 0
; Line 27
	movzx	eax, BYTE PTR [r9+6]
	or	r11d, eax
	mov	DWORD PTR k0$1$[rbp-201], r10d
	movzx	eax, BYTE PTR [r9+5]
	shl	r11d, 8
	or	r11d, eax
	movzx	eax, BYTE PTR [r9+4]
	shl	r11d, 8
	or	r11d, eax
	movzx	eax, BYTE PTR [r9+10]
	or	ebx, eax
	mov	DWORD PTR k1$1$[rbp-201], r11d
	movzx	eax, BYTE PTR [r9+9]
	shl	ebx, 8
	or	ebx, eax
	movzx	eax, BYTE PTR [r9+8]
	shl	ebx, 8
	or	ebx, eax
	movzx	eax, BYTE PTR [r9+14]
	or	edi, eax
	mov	DWORD PTR k2$1$[rbp-201], ebx
	movzx	eax, BYTE PTR [r9+13]
	shl	edi, 8
	or	edi, eax
	movzx	eax, BYTE PTR [r9+12]
	shl	edi, 8
	or	edi, eax
	movzx	eax, BYTE PTR [r9+18]
	or	esi, eax
	mov	DWORD PTR k3$1$[rbp-201], edi
	movzx	eax, BYTE PTR [r9+17]
	shl	esi, 8
	or	esi, eax
	movzx	eax, BYTE PTR [r9+16]
	shl	esi, 8
	or	esi, eax
	movzx	eax, BYTE PTR [r9+22]
	or	r14d, eax
	mov	DWORD PTR k4$1$[rbp-201], esi
	movzx	eax, BYTE PTR [r9+21]
	shl	r14d, 8
	or	r14d, eax
	movzx	eax, BYTE PTR [r9+20]
	shl	r14d, 8
	or	r14d, eax
	movzx	eax, BYTE PTR [r9+26]
	or	r15d, eax
	mov	DWORD PTR k5$1$[rbp-201], r14d
	movzx	eax, BYTE PTR [r9+25]
	shl	r15d, 8
	or	r15d, eax
	movzx	eax, BYTE PTR [r9+24]
	shl	r15d, 8
	or	r15d, eax
	mov	DWORD PTR k6$1$[rbp-201], r15d
	mov	rcx, QWORD PTR nonce$[rbp-201]
	movzx	eax, BYTE PTR [r9+30]
	shl	r12d, 8
	or	r12d, eax
	movzx	eax, BYTE PTR [r9+29]
	movzx	r13d, BYTE PTR [rcx+7]
	shl	r13d, 8
	shl	r12d, 8
	or	r12d, eax
	movzx	eax, BYTE PTR [r9+28]
	movzx	r9d, BYTE PTR [rcx+3]
	shl	r9d, 8
	shl	r12d, 8
	or	r12d, eax
	movzx	eax, BYTE PTR [rcx+2]
	or	r9d, eax
	mov	DWORD PTR k7$1$[rbp-201], r12d
	movzx	eax, BYTE PTR [rcx+1]
	shl	r9d, 8
	or	r9d, eax
	movzx	eax, BYTE PTR [rcx]
	shl	r9d, 8
	or	r9d, eax
	movzx	eax, BYTE PTR [rcx+6]
	or	r13d, eax
	mov	DWORD PTR n0$1$[rbp-201], r9d
	movzx	eax, BYTE PTR [rcx+5]
	shl	r13d, 8
	or	r13d, eax
	movzx	eax, BYTE PTR [rcx+4]
	shl	r13d, 8
	or	r13d, eax
	movzx	eax, BYTE PTR [rcx+11]
	shl	eax, 8
	mov	DWORD PTR n2$1$[rbp-201], eax
	movzx	eax, BYTE PTR [rcx+10]
	or	DWORD PTR n2$1$[rbp-201], eax
	shl	DWORD PTR n2$1$[rbp-201], 8
	movzx	eax, BYTE PTR [rcx+9]
	or	DWORD PTR n2$1$[rbp-201], eax
	shl	DWORD PTR n2$1$[rbp-201], 8
	movzx	eax, BYTE PTR [rcx+8]
	mov	ecx, DWORD PTR n2$1$[rbp-201]
	or	ecx, eax
	mov	DWORD PTR n1$1$[rbp-201], r13d
; Line 165
	cmp	QWORD PTR length$[rbp-201], 0
; Line 27
	mov	DWORD PTR n2$1$[rbp-201], ecx
; Line 165
	jbe	$LN3@chacha20_c
	vmovups	xmm2, XMMWORD PTR CHACHA_CONSTANTS
	mov	eax, DWORD PTR initial_counter$[rbp-201]
	sub	r8, rdx
	mov	QWORD PTR input$[rbp-201], r8
$LL2@chacha20_c:
; Line 169
	mov	DWORD PTR state$[rbp-185], r10d
	mov	DWORD PTR state$[rbp-181], r11d
	mov	DWORD PTR state$[rbp-177], ebx
	mov	DWORD PTR state$[rbp-173], edi
; Line 170
	mov	DWORD PTR state$[rbp-169], esi
	mov	DWORD PTR state$[rbp-165], r14d
	mov	DWORD PTR state$[rbp-161], r15d
	mov	DWORD PTR state$[rbp-157], r12d
; Line 172
	mov	DWORD PTR state$[rbp-149], r9d
	mov	DWORD PTR state$[rbp-145], r13d
	vmovups	XMMWORD PTR state$[rbp-201], xmm2
	vmovups	ymm0, YMMWORD PTR state$[rbp-201]
	vmovups	YMMWORD PTR working$[rsp], ymm0
; Line 191
	mov	r10d, DWORD PTR working$[rsp+28]
	mov	r9d, DWORD PTR working$[rsp+24]
	mov	r11d, DWORD PTR working$[rsp+20]
	mov	ebx, DWORD PTR working$[rsp+16]
	mov	DWORD PTR state$[rbp-153], eax
	mov	DWORD PTR state$[rbp-141], ecx
	vmovups	ymm1, YMMWORD PTR state$[rbp-169]
	vmovups	YMMWORD PTR working$[rsp+32], ymm1
	mov	edi, DWORD PTR working$[rsp+60]
	mov	r15d, DWORD PTR working$[rsp+56]
	mov	r14d, DWORD PTR working$[rsp+52]
	mov	esi, DWORD PTR working$[rsp+48]
	mov	r12d, DWORD PTR working$[rsp+36]
	mov	r13d, DWORD PTR working$[rsp+32]
	mov	QWORD PTR tv2693[rbp-201], 10
	npad	2
$LL6@chacha20_c:
; Line 192
	mov	ecx, DWORD PTR working$[rsp]
	add	ecx, ebx
	mov	eax, ecx
	xor	eax, esi
; Line 22
	mov	edx, eax
	shl	eax, 16
	shr	edx, 16
	or	edx, eax
; Line 192
	lea	eax, DWORD PTR [rdx+r13]
	xor	ebx, eax
; Line 22
	mov	r8d, ebx
	shl	ebx, 12
	shr	r8d, 20
	or	r8d, ebx
; Line 192
	lea	esi, DWORD PTR [r8+rcx]
	mov	ecx, DWORD PTR working$[rsp+4]
	add	ecx, r11d
	xor	edx, esi
; Line 22
	mov	r13d, edx
	shl	edx, 8
	shr	r13d, 24
	or	r13d, edx
; Line 192
	add	eax, r13d
	xor	r8d, eax
	mov	DWORD PTR tv2628[rsp], eax
; Line 22
	mov	eax, r8d
	shl	r8d, 7
	shr	eax, 25
	or	eax, r8d
	mov	DWORD PTR tv2739[rsp], eax
; Line 192
	mov	eax, ecx
	xor	eax, r14d
; Line 22
	mov	edx, eax
	shl	eax, 16
	shr	edx, 16
	or	edx, eax
; Line 192
	lea	eax, DWORD PTR [rdx+r12]
	xor	r11d, eax
; Line 22
	mov	r8d, r11d
	shl	r11d, 12
	shr	r8d, 20
	or	r8d, r11d
; Line 192
	lea	r14d, DWORD PTR [r8+rcx]
	xor	edx, r14d
; Line 22
	mov	ecx, edx
	shl	edx, 8
	shr	ecx, 24
	or	ecx, edx
; Line 192
	add	eax, ecx
; Line 22
	mov	DWORD PTR tv2757[rsp], ecx
; Line 192
	mov	ecx, DWORD PTR working$[rsp+8]
	xor	r8d, eax
	add	ecx, r9d
	mov	DWORD PTR tv2625[rbp-201], eax
; Line 22
	mov	r11d, r8d
; Line 192
	mov	eax, ecx
	xor	eax, r15d
; Line 22
	shl	r8d, 7
	mov	edx, eax
	shr	r11d, 25
	shr	edx, 16
	or	r11d, r8d
	shl	eax, 16
	or	edx, eax
; Line 192
	mov	eax, DWORD PTR working$[rsp+40]
	add	eax, edx
	xor	r9d, eax
; Line 22
	mov	r8d, r9d
	shl	r9d, 12
	shr	r8d, 20
	or	r8d, r9d
; Line 192
	lea	r15d, DWORD PTR [r8+rcx]
	xor	edx, r15d
; Line 22
	mov	ecx, edx
	shl	edx, 8
	shr	ecx, 24
	or	ecx, edx
	mov	DWORD PTR tv2743[rbp-201], ecx
; Line 192
	lea	r9d, DWORD PTR [rcx+rax]
	xor	r8d, r9d
; Line 22
	mov	ebx, r8d
; Line 192
	mov	ecx, DWORD PTR working$[rsp+12]
	add	ecx, r10d
; Line 22
	shl	r8d, 7
; Line 192
	mov	eax, ecx
; Line 22
	shr	ebx, 25
; Line 192
	xor	eax, edi
; Line 22
	or	ebx, r8d
	mov	edx, eax
	shl	eax, 16
	shr	edx, 16
	or	edx, eax
; Line 192
	mov	eax, DWORD PTR working$[rsp+44]
	add	eax, edx
	xor	r10d, eax
; Line 22
	mov	r8d, r10d
	shl	r10d, 12
	shr	r8d, 20
	or	r8d, r10d
; Line 192
	lea	r12d, DWORD PTR [r8+rcx]
	xor	edx, r12d
; Line 22
	mov	ecx, edx
	shl	edx, 8
	shr	ecx, 24
	or	ecx, edx
; Line 192
	lea	r10d, DWORD PTR [rcx+rax]
	lea	eax, DWORD PTR [r11+rsi]
	xor	r8d, r10d
; Line 193
	xor	ecx, eax
; Line 22
	mov	edi, r8d
	shl	r8d, 7
	mov	edx, ecx
	shr	edx, 16
	shl	ecx, 16
	or	edx, ecx
	shr	edi, 25
	or	edi, r8d
; Line 193
	lea	ecx, DWORD PTR [rdx+r9]
	xor	r11d, ecx
; Line 22
	mov	r8d, r11d
	shl	r11d, 12
	shr	r8d, 20
	or	r8d, r11d
; Line 193
	add	eax, r8d
; Line 22
	mov	DWORD PTR working$6$[rbp-201], r8d
; Line 193
	xor	edx, eax
	mov	DWORD PTR working$[rsp], eax
; Line 22
	mov	eax, edx
; Line 193
	mov	r11d, r8d
; Line 22
	shl	edx, 8
	shr	eax, 24
	or	eax, edx
	mov	DWORD PTR working$15$[rbp-201], eax
; Line 193
	mov	DWORD PTR working$[rsp+60], eax
	add	eax, ecx
	xor	r11d, eax
	mov	DWORD PTR working$[rsp+40], eax
	lea	eax, DWORD PTR [rbx+r14]
; Line 22
	ror	r11d, 25
; Line 193
	xor	r13d, eax
	mov	DWORD PTR working$[rsp+20], r11d
; Line 22
	mov	edx, r13d
	shl	r13d, 16
	shr	edx, 16
	or	edx, r13d
; Line 193
	lea	ecx, DWORD PTR [rdx+r10]
	xor	ebx, ecx
; Line 22
	mov	r9d, ebx
	shl	ebx, 12
	shr	r9d, 20
	or	r9d, ebx
; Line 193
	add	eax, r9d
	xor	edx, eax
	mov	DWORD PTR working$[rsp+4], eax
; Line 22
	mov	esi, edx
	shl	edx, 8
	shr	esi, 24
	or	esi, edx
; Line 193
	lea	eax, DWORD PTR [rsi+rcx]
	xor	r9d, eax
	mov	DWORD PTR working$[rsp+44], eax
; Line 22
	ror	r9d, 25
; Line 193
	mov	r8d, DWORD PTR tv2739[rsp]
	lea	eax, DWORD PTR [rdi+r15]
	mov	ecx, DWORD PTR tv2757[rsp]
	xor	ecx, eax
; Line 22
	mov	edx, ecx
	shl	ecx, 16
	shr	edx, 16
	or	edx, ecx
; Line 193
	mov	ecx, DWORD PTR tv2628[rsp]
	add	ecx, edx
	xor	edi, ecx
; Line 22
	mov	r10d, edi
	shl	edi, 12
	shr	r10d, 20
	or	r10d, edi
; Line 191
	mov	edi, DWORD PTR working$15$[rbp-201]
; Line 193
	add	eax, r10d
	xor	edx, eax
	mov	DWORD PTR working$[rsp+8], eax
; Line 22
	mov	r14d, edx
; Line 193
	lea	eax, DWORD PTR [r8+r12]
; Line 22
	shl	edx, 8
	shr	r14d, 24
	or	r14d, edx
; Line 193
	lea	r13d, DWORD PTR [r14+rcx]
	mov	ecx, DWORD PTR tv2743[rbp-201]
	xor	ecx, eax
	xor	r10d, r13d
; Line 22
	mov	edx, ecx
	ror	r10d, 25
	shr	edx, 16
	shl	ecx, 16
	or	edx, ecx
; Line 193
	mov	ecx, DWORD PTR tv2625[rbp-201]
	add	ecx, edx
	xor	r8d, ecx
; Line 22
	mov	ebx, r8d
	shl	r8d, 12
	shr	ebx, 20
	or	ebx, r8d
; Line 193
	add	eax, ebx
	xor	edx, eax
	mov	DWORD PTR working$[rsp+12], eax
; Line 22
	mov	r15d, edx
	shl	edx, 8
	shr	r15d, 24
	or	r15d, edx
; Line 193
	lea	r12d, DWORD PTR [r15+rcx]
	xor	ebx, r12d
; Line 22
	ror	ebx, 25
; Line 191
	sub	QWORD PTR tv2693[rbp-201], 1
	jne	$LL6@chacha20_c
; Line 201
	mov	rdx, QWORD PTR output$[rbp-201]
	lea	r11, QWORD PTR state$[rbp-201]
	mov	DWORD PTR working$[rsp+28], r10d
	mov	eax, 64					; 00000040H
	mov	DWORD PTR working$[rsp+48], esi
	lea	r10, QWORD PTR working$[rsp]
	mov	DWORD PTR working$[rsp+52], r14d
	mov	edi, 1
	mov	DWORD PTR working$[rsp+16], ebx
	mov	esi, 2
	mov	rbx, QWORD PTR offset$1$[rbp-201]
	mov	r14, rbx
	mov	DWORD PTR working$[rsp+36], r12d
	mov	r12, QWORD PTR length$[rbp-201]
	not	r14
	mov	r8, r12
	mov	DWORD PTR working$[rsp+24], r9d
	sub	r8, rbx
	mov	DWORD PTR working$[rsp+56], r15d
	cmp	r8, 64					; 00000040H
	mov	DWORD PTR working$[rsp+32], r13d
	lea	r15, QWORD PTR [rbx+rdx]
	cmova	r8, rax
	sub	r10, rbx
	sub	r11, rbx
	lea	rax, QWORD PTR [r15+1]
	sub	rdi, rbx
	sub	rsi, rbx
	mov	rbx, QWORD PTR input$[rbp-201]
	sub	r10, rdx
	sub	r11, rdx
	sub	rdi, rdx
	sub	rsi, rdx
	xor	r9d, r9d
	sub	r14, rdx
	npad	6
$LL9@chacha20_c:
	movsxd	rcx, r9d
	cmp	rcx, r8
	jae	SHORT $LN8@chacha20_c
; Line 202
	mov	edx, DWORD PTR [r11+rax-1]
; Line 204
	lea	rcx, QWORD PTR [r14+rax]
	add	edx, DWORD PTR [r10+rax-1]
	cmp	rcx, r8
	jae	SHORT $LN11@chacha20_c
	movzx	ecx, dl
	xor	cl, BYTE PTR [rbx+rax-1]
	mov	BYTE PTR [rax-1], cl
$LN11@chacha20_c:
; Line 205
	mov	rcx, rax
	sub	rcx, r15
	cmp	rcx, r8
	jae	SHORT $LN12@chacha20_c
	mov	ecx, edx
	shr	ecx, 8
	xor	cl, BYTE PTR [rax+rbx]
	mov	BYTE PTR [rax], cl
$LN12@chacha20_c:
; Line 206
	lea	rcx, QWORD PTR [rdi+rax]
	cmp	rcx, r8
	jae	SHORT $LN13@chacha20_c
	mov	ecx, edx
	shr	ecx, 16
	xor	cl, BYTE PTR [rbx+rax+1]
	mov	BYTE PTR [rax+1], cl
$LN13@chacha20_c:
; Line 207
	lea	rcx, QWORD PTR [rsi+rax]
	cmp	rcx, r8
	jae	SHORT $LN7@chacha20_c
	shr	edx, 24
	xor	dl, BYTE PTR [rbx+rax+2]
	mov	BYTE PTR [rax+2], dl
$LN7@chacha20_c:
; Line 201
	add	r9d, 4
	add	rax, 4
	cmp	r9d, 64					; 00000040H
	jl	SHORT $LL9@chacha20_c
$LN8@chacha20_c:
; Line 210
	mov	eax, DWORD PTR initial_counter$[rbp-201]
; Line 211
	mov	rbx, QWORD PTR offset$1$[rbp-201]
	inc	eax
	mov	r10d, DWORD PTR k0$1$[rbp-201]
	add	rbx, r8
	mov	r11d, DWORD PTR k1$1$[rbp-201]
	cmp	rbx, r12
	mov	r12d, DWORD PTR k7$1$[rbp-201]
	mov	edi, DWORD PTR k3$1$[rbp-201]
	mov	esi, DWORD PTR k4$1$[rbp-201]
	mov	r14d, DWORD PTR k5$1$[rbp-201]
	mov	r15d, DWORD PTR k6$1$[rbp-201]
	mov	r9d, DWORD PTR n0$1$[rbp-201]
	mov	r13d, DWORD PTR n1$1$[rbp-201]
	mov	ecx, DWORD PTR n2$1$[rbp-201]
	mov	QWORD PTR offset$1$[rbp-201], rbx
	mov	ebx, DWORD PTR k2$1$[rbp-201]
	mov	DWORD PTR initial_counter$[rbp-201], eax
	jb	$LL2@chacha20_c
$LN3@chacha20_c:
; Line 213
	vzeroupper
	add	rsp, 216				; 000000d8H
	pop	r15
	pop	r14
	pop	r13
	pop	r12
	pop	rdi
	pop	rsi
	pop	rbx
	pop	rbp
	ret	0
chacha20_crypt_unroll ENDP
_TEXT	ENDS
; Function compile flags: /Ogtpy
;	COMDAT chacha20_block_export
_TEXT	SEGMENT
out$ = 8
key$ = 16
nonce$ = 24
counter$ = 32
chacha20_block_export PROC				; COMDAT
; File C:\MyDartProjects\asmjit\benchmark\asmjit\native\chacha20_impl.c
; Line 133
	jmp	chacha20_block
chacha20_block_export ENDP
_TEXT	ENDS
; Function compile flags: /Ogtpy
;	COMDAT chacha20_crypt
_TEXT	SEGMENT
nonce$GSCopy$1$ = 40
block$ = 48
__$ArrayPad$ = 112
output$ = 192
input$ = 200
length$ = 208
key$ = 216
nonce$ = 224
initial_counter$ = 232
chacha20_crypt PROC					; COMDAT
; File C:\MyDartProjects\asmjit\benchmark\asmjit\native\chacha20_impl.c
; Line 106
$LN46:
	mov	r11, rsp
	push	rbx
	push	rsi
	push	rdi
	push	r12
	push	r13
	push	r15
	sub	rsp, 136				; 00000088H
	mov	rax, QWORD PTR __security_cookie
	xor	rax, rsp
	mov	QWORD PTR __$ArrayPad$[rsp], rax
	mov	rax, QWORD PTR nonce$[rsp]
; Line 110
	xor	ebx, ebx
	mov	r15d, DWORD PTR initial_counter$[rsp]
	mov	r13, r9
	mov	QWORD PTR nonce$GSCopy$1$[rsp], rax
	mov	r12, r8
	mov	rsi, rdx
	mov	rdi, rcx
; Line 112
	test	r8, r8
	je	$LN3@chacha20_c
	mov	QWORD PTR [r11+16], rbp
	mov	QWORD PTR [r11-56], r14
	npad	10
$LL2@chacha20_c:
; Line 113
	mov	r9d, r15d
	lea	rcx, QWORD PTR block$[rsp]
	mov	r8, rax
	mov	rdx, r13
	call	chacha20_block
; Line 116
	mov	rdx, r12
	inc	r15d
	sub	rdx, rbx
; Line 117
	cmp	rdx, 64					; 00000040H
	jbe	SHORT $LN7@chacha20_c
	mov	edx, 64					; 00000040H
; Line 119
	jmp	SHORT $LN33@chacha20_c
$LN7@chacha20_c:
	mov	rax, rdx
	test	rdx, rdx
	je	$LN5@chacha20_c
	xor	ecx, ecx
	cmp	rax, 8
	jb	$LN31@chacha20_c
$LN33@chacha20_c:
	lea	r9, QWORD PTR [rdi-1]
	xor	ecx, ecx
	add	r9, rdx
	lea	r8, QWORD PTR [rdi+rbx]
	add	r9, rbx
	lea	rax, QWORD PTR block$[rsp+rdx-1]
	cmp	r8, rax
	ja	SHORT $LN17@chacha20_c
	lea	rax, QWORD PTR block$[rsp]
	cmp	r9, rax
	jae	$LN31@chacha20_c
$LN17@chacha20_c:
	lea	rax, QWORD PTR [rbx-1]
	add	rax, rdx
	lea	r10, QWORD PTR [rbx+rsi]
	add	rax, rsi
	cmp	r8, rax
	ja	SHORT $LN18@chacha20_c
	cmp	r9, r10
	jae	$LN31@chacha20_c
$LN18@chacha20_c:
	cmp	rdx, 64					; 00000040H
	jb	$LN30@chacha20_c
; Line 120
	mov	r11, rdx
	mov	rbp, rdx
	and	r11d, 63				; 0000003fH
	sub	rbp, r11
	lea	rax, QWORD PTR [r8+16]
	mov	r14, rsi
	lea	r8, QWORD PTR block$[rsp]
	sub	r14, rdi
	sub	r8, rdi
	lea	r9, QWORD PTR block$[rsp+16]
	sub	r9, rdi
	lea	r10, QWORD PTR block$[rsp+32]
	sub	r8, rbx
	sub	r9, rbx
	sub	r10, rdi
	sub	r10, rbx
	npad	9
$LL6@chacha20_c:
	vmovdqu	xmm2, XMMWORD PTR [r14+rax]
	vmovdqu	xmm1, XMMWORD PTR [rax+r8-16]
	vpxor	xmm1, xmm1, XMMWORD PTR [r14+rax-16]
	vmovdqu	XMMWORD PTR [rax-16], xmm1
	vpxor	xmm1, xmm2, XMMWORD PTR [rax+r8]
	vmovdqu	xmm2, XMMWORD PTR [r9+rax]
	vmovdqu	XMMWORD PTR [rax], xmm1
	vpxor	xmm1, xmm2, XMMWORD PTR [r14+rax+16]
	vmovdqu	xmm2, XMMWORD PTR [r10+rax]
	vmovdqu	XMMWORD PTR [rax+16], xmm1
	vpxor	xmm1, xmm2, XMMWORD PTR [r14+rax+32]
	add	rcx, 64					; 00000040H
	vmovdqu	XMMWORD PTR [rax+32], xmm1
	lea	rax, QWORD PTR [rax+64]
	cmp	rcx, rbp
	jb	SHORT $LL6@chacha20_c
; Line 119
	cmp	r11, 8
	jb	SHORT $LN14@chacha20_c
$LN30@chacha20_c:
; Line 120
	mov	r9, rdx
	and	r9, -8
	lea	rax, QWORD PTR [rdi+rcx]
	mov	r10, rsi
	lea	r8, QWORD PTR block$[rsp]
	add	rax, rbx
	sub	r10, rdi
	sub	r8, rdi
	sub	r8, rbx
	npad	7
$LL15@chacha20_c:
	vmovq	xmm1, QWORD PTR [r8+rax]
	vmovq	xmm0, QWORD PTR [rax+r10]
	vpxor	xmm1, xmm1, xmm0
	add	rcx, 8
	vmovq	QWORD PTR [rax], xmm1
	lea	rax, QWORD PTR [rax+8]
	cmp	rcx, r9
	jb	SHORT $LL15@chacha20_c
$LN14@chacha20_c:
; Line 119
	cmp	rcx, rdx
	jae	SHORT $LN5@chacha20_c
$LN31@chacha20_c:
	lea	r9, QWORD PTR block$[rsp]
	mov	r10, rsi
	sub	r9, rdi
	lea	rax, QWORD PTR [rdi+rcx]
	sub	r9, rbx
	add	rax, rbx
	sub	r10, rdi
	mov	r8, rdx
	sub	r8, rcx
	npad	12
$LL13@chacha20_c:
; Line 120
	movzx	ecx, BYTE PTR [r9+rax]
	xor	cl, BYTE PTR [rax+r10]
	mov	BYTE PTR [rax], cl
	lea	rax, QWORD PTR [rax+1]
	sub	r8, 1
	jne	SHORT $LL13@chacha20_c
$LN5@chacha20_c:
; Line 112
	mov	rax, QWORD PTR nonce$GSCopy$1$[rsp]
; Line 123
	add	rbx, rdx
	cmp	rbx, r12
	jb	$LL2@chacha20_c
; Line 112
	mov	r14, QWORD PTR [rsp+128]
	mov	rbp, QWORD PTR [rsp+200]
$LN3@chacha20_c:
; Line 125
	mov	rcx, QWORD PTR __$ArrayPad$[rsp]
	xor	rcx, rsp
	call	__security_check_cookie
	add	rsp, 136				; 00000088H
	pop	r15
	pop	r13
	pop	r12
	pop	rdi
	pop	rsi
	pop	rbx
	ret	0
chacha20_crypt ENDP
_TEXT	ENDS
; Function compile flags: /Ogtpy
;	COMDAT chacha20_block
_TEXT	SEGMENT
working$4$ = 0
working$13$ = 0
tv2392 = 4
tv2275 = 8
tv2373 = 12
tv2378 = 16
tv2271 = 20
tv2345 = 24
out$GSCopy$1$ = 32
working$ = 48
state$ = 112
__$ArrayPad$ = 176
out$ = 240
key$ = 248
nonce$ = 256
counter$ = 264
chacha20_block PROC					; COMDAT
; File C:\MyDartProjects\asmjit\benchmark\asmjit\native\chacha20_impl.c
; Line 51
	mov	QWORD PTR [rsp+16], rbx
	mov	QWORD PTR [rsp+24], rsi
	mov	QWORD PTR [rsp+32], rdi
	push	rbp
	push	r12
	push	r13
	push	r14
	push	r15
	lea	rbp, QWORD PTR [rsp-55]
	sub	rsp, 192				; 000000c0H
	mov	rax, QWORD PTR __security_cookie
	xor	rax, rsp
	mov	QWORD PTR __$ArrayPad$[rbp-137], rax
	mov	QWORD PTR out$GSCopy$1$[rbp-137], rcx
; Line 27
	movzx	eax, BYTE PTR [rdx+2]
	movzx	r10d, BYTE PTR [rdx+3]
	movzx	ecx, BYTE PTR [rdx+7]
	shl	ecx, 8
; Line 51
	vmovups	xmm0, XMMWORD PTR CHACHA_CONSTANTS
; Line 27
	shl	r10d, 8
	or	r10d, eax
	movzx	eax, BYTE PTR [rdx+1]
	shl	r10d, 8
	or	r10d, eax
	movzx	eax, BYTE PTR [rdx]
	shl	r10d, 8
	or	r10d, eax
	movzx	eax, BYTE PTR [rdx+6]
	or	ecx, eax
; Line 63
	mov	DWORD PTR state$[rbp-121], r10d
; Line 27
	shl	ecx, 8
	movzx	eax, BYTE PTR [rdx+5]
	or	ecx, eax
	movzx	eax, BYTE PTR [rdx+4]
	shl	ecx, 8
	or	ecx, eax
	movzx	eax, BYTE PTR [rdx+10]
; Line 63
	mov	DWORD PTR state$[rbp-117], ecx
; Line 27
	movzx	ecx, BYTE PTR [rdx+11]
	shl	ecx, 8
	or	ecx, eax
	movzx	eax, BYTE PTR [rdx+9]
	shl	ecx, 8
	or	ecx, eax
	movzx	eax, BYTE PTR [rdx+8]
	shl	ecx, 8
	or	ecx, eax
	movzx	eax, BYTE PTR [rdx+14]
; Line 63
	mov	DWORD PTR state$[rbp-113], ecx
; Line 27
	movzx	ecx, BYTE PTR [rdx+15]
	shl	ecx, 8
	or	ecx, eax
	movzx	eax, BYTE PTR [rdx+13]
	shl	ecx, 8
	or	ecx, eax
	movzx	eax, BYTE PTR [rdx+12]
	shl	ecx, 8
	or	ecx, eax
	movzx	eax, BYTE PTR [rdx+18]
; Line 63
	mov	DWORD PTR state$[rbp-109], ecx
; Line 27
	movzx	ecx, BYTE PTR [rdx+19]
	shl	ecx, 8
	or	ecx, eax
	movzx	eax, BYTE PTR [rdx+17]
	shl	ecx, 8
	or	ecx, eax
	movzx	eax, BYTE PTR [rdx+16]
	shl	ecx, 8
	or	ecx, eax
	movzx	eax, BYTE PTR [rdx+22]
; Line 63
	mov	DWORD PTR state$[rbp-105], ecx
; Line 27
	movzx	ecx, BYTE PTR [rdx+23]
	shl	ecx, 8
	or	ecx, eax
	movzx	eax, BYTE PTR [rdx+21]
	shl	ecx, 8
	or	ecx, eax
	movzx	eax, BYTE PTR [rdx+20]
	shl	ecx, 8
	or	ecx, eax
	movzx	eax, BYTE PTR [rdx+26]
; Line 63
	mov	DWORD PTR state$[rbp-101], ecx
; Line 27
	movzx	ecx, BYTE PTR [rdx+27]
	shl	ecx, 8
	or	ecx, eax
	movzx	eax, BYTE PTR [rdx+25]
	shl	ecx, 8
	or	ecx, eax
	movzx	eax, BYTE PTR [rdx+24]
	shl	ecx, 8
	or	ecx, eax
; Line 63
	mov	DWORD PTR state$[rbp-97], ecx
; Line 27
	movzx	ecx, BYTE PTR [rdx+31]
; Line 51
	vmovups	XMMWORD PTR state$[rbp-137], xmm0
; Line 27
	movzx	eax, BYTE PTR [rdx+30]
	vmovups	ymm0, YMMWORD PTR state$[rbp-137]
	shl	ecx, 8
	or	ecx, eax
; Line 67
	mov	DWORD PTR state$[rbp-89], r9d
; Line 27
	movzx	eax, BYTE PTR [rdx+29]
	shl	ecx, 8
	or	ecx, eax
; Line 78
	mov	QWORD PTR tv2345[rbp-137], 10
; Line 27
	movzx	eax, BYTE PTR [rdx+28]
	shl	ecx, 8
	or	ecx, eax
	movzx	eax, BYTE PTR [r8+2]
; Line 63
	mov	DWORD PTR state$[rbp-93], ecx
; Line 27
	movzx	ecx, BYTE PTR [r8+3]
	shl	ecx, 8
	or	ecx, eax
	movzx	eax, BYTE PTR [r8+1]
	shl	ecx, 8
	or	ecx, eax
	movzx	eax, BYTE PTR [r8]
	shl	ecx, 8
	or	ecx, eax
	movzx	eax, BYTE PTR [r8+6]
; Line 68
	mov	DWORD PTR state$[rbp-85], ecx
; Line 27
	movzx	ecx, BYTE PTR [r8+7]
	shl	ecx, 8
	or	ecx, eax
	movzx	eax, BYTE PTR [r8+5]
	shl	ecx, 8
	or	ecx, eax
	movzx	eax, BYTE PTR [r8+4]
	shl	ecx, 8
	or	ecx, eax
	movzx	eax, BYTE PTR [r8+10]
; Line 69
	mov	DWORD PTR state$[rbp-81], ecx
; Line 27
	movzx	ecx, BYTE PTR [r8+11]
	shl	ecx, 8
	or	ecx, eax
	movzx	eax, BYTE PTR [r8+9]
	vmovups	YMMWORD PTR working$[rbp-137], ymm0
; Line 78
	mov	r10d, DWORD PTR working$[rbp-109]
	mov	r9d, DWORD PTR working$[rbp-113]
	mov	r11d, DWORD PTR working$[rbp-117]
	mov	ebx, DWORD PTR working$[rbp-121]
; Line 27
	shl	ecx, 8
	or	ecx, eax
	movzx	eax, BYTE PTR [r8+8]
	shl	ecx, 8
	or	ecx, eax
; Line 70
	mov	DWORD PTR state$[rbp-77], ecx
; Line 27
	vmovups	ymm1, YMMWORD PTR state$[rbp-105]
	vmovups	YMMWORD PTR working$[rbp-105], ymm1
; Line 78
	mov	r12d, DWORD PTR working$[rbp-77]
	mov	r15d, DWORD PTR working$[rbp-81]
	mov	edi, DWORD PTR working$[rbp-85]
	mov	esi, DWORD PTR working$[rbp-89]
	mov	r14d, DWORD PTR working$[rbp-101]
	mov	r13d, DWORD PTR working$[rbp-105]
$LL10@chacha20_b:
; Line 43
	mov	eax, DWORD PTR working$[rbp-137]
	add	eax, ebx
	xor	esi, eax
; Line 22
	mov	edx, esi
	shl	esi, 16
	shr	edx, 16
	or	edx, esi
; Line 43
	lea	ecx, DWORD PTR [rdx+r13]
; Line 44
	xor	ebx, ecx
; Line 22
	mov	r8d, ebx
	shl	ebx, 12
	shr	r8d, 20
	or	r8d, ebx
; Line 45
	lea	esi, DWORD PTR [r8+rax]
	xor	edx, esi
; Line 22
	mov	r13d, edx
	shl	edx, 8
	shr	r13d, 24
	or	r13d, edx
; Line 45
	lea	eax, DWORD PTR [rcx+r13]
; Line 46
	xor	r8d, eax
	mov	DWORD PTR tv2275[rsp], eax
; Line 22
	mov	eax, r8d
	shl	r8d, 7
	shr	eax, 25
	or	eax, r8d
	mov	DWORD PTR tv2373[rbp-137], eax
; Line 43
	mov	eax, DWORD PTR working$[rbp-133]
	add	eax, r11d
	xor	edi, eax
; Line 22
	mov	edx, edi
	shl	edi, 16
	shr	edx, 16
	or	edx, edi
; Line 43
	lea	ecx, DWORD PTR [rdx+r14]
; Line 44
	xor	r11d, ecx
; Line 22
	mov	r8d, r11d
	shl	r11d, 12
	shr	r8d, 20
	or	r8d, r11d
; Line 45
	lea	r14d, DWORD PTR [r8+rax]
	xor	edx, r14d
; Line 22
	mov	eax, edx
	shl	edx, 8
	shr	eax, 24
	or	eax, edx
	mov	DWORD PTR tv2392[rsp], eax
; Line 45
	add	eax, ecx
; Line 43
	mov	ecx, DWORD PTR working$[rbp-129]
; Line 46
	xor	r8d, eax
; Line 43
	add	ecx, r9d
; Line 45
	mov	DWORD PTR tv2271[rbp-137], eax
; Line 22
	mov	r11d, r8d
; Line 43
	mov	eax, ecx
	xor	eax, r15d
; Line 22
	shl	r8d, 7
	mov	edx, eax
	shr	r11d, 25
	or	r11d, r8d
	shr	edx, 16
	shl	eax, 16
	or	edx, eax
; Line 43
	mov	eax, DWORD PTR working$[rbp-97]
	add	eax, edx
; Line 44
	xor	r9d, eax
; Line 22
	mov	r8d, r9d
	shl	r9d, 12
	shr	r8d, 20
	or	r8d, r9d
; Line 44
	lea	r15d, DWORD PTR [r8+rcx]
; Line 45
	xor	edx, r15d
; Line 22
	mov	ecx, edx
	shl	edx, 8
	shr	ecx, 24
	or	ecx, edx
	mov	DWORD PTR tv2378[rbp-137], ecx
; Line 45
	lea	r9d, DWORD PTR [rcx+rax]
; Line 46
	xor	r8d, r9d
; Line 22
	mov	ebx, r8d
	shr	ebx, 25
	shl	r8d, 7
; Line 43
	mov	ecx, DWORD PTR working$[rbp-125]
; Line 22
	or	ebx, r8d
; Line 43
	add	ecx, r10d
	mov	eax, ecx
	xor	eax, r12d
; Line 22
	mov	edx, eax
	shl	eax, 16
	shr	edx, 16
	or	edx, eax
; Line 43
	mov	eax, DWORD PTR working$[rbp-93]
	add	eax, edx
; Line 44
	xor	r10d, eax
; Line 22
	mov	r8d, r10d
	shl	r10d, 12
	shr	r8d, 20
	or	r8d, r10d
; Line 44
	lea	r12d, DWORD PTR [r8+rcx]
; Line 45
	xor	edx, r12d
; Line 22
	mov	ecx, edx
	shl	edx, 8
	shr	ecx, 24
	or	ecx, edx
; Line 45
	lea	r10d, DWORD PTR [rcx+rax]
; Line 43
	lea	eax, DWORD PTR [r11+rsi]
; Line 46
	xor	r8d, r10d
; Line 43
	xor	ecx, eax
; Line 22
	mov	edi, r8d
	mov	edx, ecx
	shl	r8d, 7
	shr	edx, 16
	shl	ecx, 16
	or	edx, ecx
	shr	edi, 25
	or	edi, r8d
; Line 43
	lea	ecx, DWORD PTR [rdx+r9]
; Line 44
	xor	r11d, ecx
; Line 22
	mov	r8d, r11d
	shl	r11d, 12
	shr	r8d, 20
	or	r8d, r11d
; Line 45
	add	eax, r8d
; Line 22
	mov	DWORD PTR working$4$[rsp], r8d
; Line 45
	xor	edx, eax
	mov	DWORD PTR working$[rbp-137], eax
; Line 22
	mov	eax, edx
; Line 45
	mov	r11d, r8d
; Line 22
	shr	eax, 24
	shl	edx, 8
	or	eax, edx
	mov	DWORD PTR working$13$[rsp], eax
; Line 45
	mov	DWORD PTR working$[rbp-77], eax
	add	eax, ecx
; Line 46
	xor	r11d, eax
	mov	DWORD PTR working$[rbp-97], eax
; Line 43
	lea	eax, DWORD PTR [rbx+r14]
; Line 22
	ror	r11d, 25
; Line 43
	xor	r13d, eax
; Line 46
	mov	DWORD PTR working$[rbp-117], r11d
; Line 22
	mov	edx, r13d
	shl	r13d, 16
	shr	edx, 16
	or	edx, r13d
; Line 43
	lea	ecx, DWORD PTR [rdx+r10]
; Line 44
	xor	ebx, ecx
; Line 22
	mov	r9d, ebx
	shl	ebx, 12
	shr	r9d, 20
	or	r9d, ebx
; Line 45
	add	eax, r9d
	xor	edx, eax
	mov	DWORD PTR working$[rbp-133], eax
; Line 22
	mov	esi, edx
	shl	edx, 8
	shr	esi, 24
	or	esi, edx
; Line 45
	lea	eax, DWORD PTR [rsi+rcx]
; Line 43
	mov	ecx, DWORD PTR tv2392[rsp]
; Line 46
	xor	r9d, eax
	mov	DWORD PTR working$[rbp-93], eax
; Line 22
	ror	r9d, 25
; Line 46
	lea	eax, DWORD PTR [rdi+r15]
	mov	r8d, DWORD PTR tv2373[rbp-137]
	xor	ecx, eax
; Line 22
	mov	edx, ecx
	shl	ecx, 16
	shr	edx, 16
	or	edx, ecx
; Line 43
	mov	ecx, DWORD PTR tv2275[rsp]
	add	ecx, edx
; Line 44
	xor	edi, ecx
; Line 22
	mov	r10d, edi
	shl	edi, 12
	shr	r10d, 20
	or	r10d, edi
; Line 44
	add	eax, r10d
; Line 45
	xor	edx, eax
	mov	DWORD PTR working$[rbp-129], eax
; Line 22
	mov	edi, edx
; Line 46
	lea	eax, DWORD PTR [r8+r12]
; Line 78
	mov	r12d, DWORD PTR working$13$[rsp]
; Line 22
	shl	edx, 8
	shr	edi, 24
	or	edi, edx
; Line 45
	lea	r13d, DWORD PTR [rdi+rcx]
; Line 43
	mov	ecx, DWORD PTR tv2378[rbp-137]
	xor	ecx, eax
; Line 46
	xor	r10d, r13d
; Line 22
	mov	edx, ecx
	ror	r10d, 25
	shr	edx, 16
	shl	ecx, 16
	or	edx, ecx
; Line 43
	mov	ecx, DWORD PTR tv2271[rbp-137]
	add	ecx, edx
; Line 44
	xor	r8d, ecx
; Line 22
	mov	ebx, r8d
	shl	r8d, 12
	shr	ebx, 20
	or	ebx, r8d
; Line 44
	add	eax, ebx
; Line 45
	xor	edx, eax
	mov	DWORD PTR working$[rbp-125], eax
; Line 22
	mov	r15d, edx
	shl	edx, 8
	shr	r15d, 24
	or	r15d, edx
; Line 45
	lea	r14d, DWORD PTR [r15+rcx]
; Line 46
	xor	ebx, r14d
; Line 22
	ror	ebx, 25
; Line 78
	sub	QWORD PTR tv2345[rbp-137], 1
	jne	$LL10@chacha20_b
; Line 93
	mov	rcx, QWORD PTR out$GSCopy$1$[rbp-137]
	lea	r8, QWORD PTR working$[rbp-137]
; Line 46
	mov	DWORD PTR working$[rbp-109], r10d
; Line 93
	lea	r10, QWORD PTR state$[rbp-137]
	sub	r10, rcx
; Line 46
	mov	DWORD PTR working$[rbp-113], r9d
; Line 93
	sub	r8, rcx
; Line 46
	mov	DWORD PTR working$[rbp-121], ebx
; Line 93
	lea	rax, QWORD PTR [rcx+2]
; Line 45
	mov	DWORD PTR working$[rbp-85], edi
	mov	DWORD PTR working$[rbp-89], esi
; Line 93
	mov	r9d, 16
; Line 45
	mov	DWORD PTR working$[rbp-81], r15d
; Line 46
	mov	DWORD PTR working$[rbp-101], r14d
	mov	DWORD PTR working$[rbp-105], r13d
	npad	7
$LL13@chacha20_b:
; Line 94
	mov	ecx, DWORD PTR [r10+rax-2]
	add	DWORD PTR [r8+rax-2], ecx
	mov	edx, DWORD PTR [r8+rax-2]
; Line 36
	mov	ecx, edx
	shr	ecx, 8
	mov	BYTE PTR [rax-1], cl
; Line 37
	mov	ecx, edx
	mov	BYTE PTR [rax-2], dl
; Line 93
	lea	rax, QWORD PTR [rax+4]
; Line 37
	shr	ecx, 16
; Line 38
	shr	edx, 24
	mov	BYTE PTR [rax-4], cl
	mov	BYTE PTR [rax-3], dl
; Line 93
	sub	r9, 1
	jne	SHORT $LL13@chacha20_b
; Line 97
	vzeroupper
	mov	rcx, QWORD PTR __$ArrayPad$[rbp-137]
	xor	rcx, rsp
	call	__security_check_cookie
	lea	r11, QWORD PTR [rsp+192]
	mov	rbx, QWORD PTR [r11+56]
	mov	rsi, QWORD PTR [r11+64]
	mov	rdi, QWORD PTR [r11+72]
	mov	rsp, r11
	pop	r15
	pop	r14
	pop	r13
	pop	r12
	pop	rbp
	ret	0
chacha20_block ENDP
_TEXT	ENDS
; Function compile flags: /Ogtpy
;	COMDAT quarter_round
_TEXT	SEGMENT
a$ = 8
b$ = 16
c$ = 24
d$ = 32
quarter_round PROC					; COMDAT
; File C:\MyDartProjects\asmjit\benchmark\asmjit\native\chacha20_impl.c
; Line 43
	mov	eax, DWORD PTR [rdx]
	mov	r11, rcx
	add	DWORD PTR [rcx], eax
	mov	r10d, DWORD PTR [rcx]
	xor	r10d, DWORD PTR [r9]
; Line 22
	mov	eax, r10d
	shl	r10d, 16
	shr	eax, 16
	or	eax, r10d
; Line 43
	mov	DWORD PTR [r9], eax
; Line 44
	add	DWORD PTR [r8], eax
	mov	ecx, DWORD PTR [r8]
	xor	ecx, DWORD PTR [rdx]
; Line 22
	mov	eax, ecx
	shl	ecx, 12
	shr	eax, 20
	or	eax, ecx
; Line 44
	mov	DWORD PTR [rdx], eax
; Line 45
	add	DWORD PTR [r11], eax
	mov	ecx, DWORD PTR [r11]
	xor	ecx, DWORD PTR [r9]
; Line 22
	mov	eax, ecx
	shl	ecx, 8
	shr	eax, 24
	or	eax, ecx
; Line 45
	mov	DWORD PTR [r9], eax
; Line 46
	add	DWORD PTR [r8], eax
	mov	eax, DWORD PTR [r8]
	xor	eax, DWORD PTR [rdx]
; Line 22
	ror	eax, 25
; Line 46
	mov	DWORD PTR [rdx], eax
; Line 47
	ret	0
quarter_round ENDP
_TEXT	ENDS
; Function compile flags: /Ogtpy
;	COMDAT store32_le
_TEXT	SEGMENT
p$ = 8
v$ = 16
store32_le PROC						; COMDAT
; File C:\MyDartProjects\asmjit\benchmark\asmjit\native\chacha20_impl.c
; Line 36
	mov	eax, edx
	mov	BYTE PTR [rcx], dl
	shr	eax, 8
	mov	BYTE PTR [rcx+1], al
; Line 37
	mov	eax, edx
	shr	eax, 16
; Line 38
	shr	edx, 24
	mov	BYTE PTR [rcx+2], al
	mov	BYTE PTR [rcx+3], dl
; Line 39
	ret	0
store32_le ENDP
_TEXT	ENDS
; Function compile flags: /Ogtpy
;	COMDAT load32_le
_TEXT	SEGMENT
p$ = 8
load32_le PROC						; COMDAT
; File C:\MyDartProjects\asmjit\benchmark\asmjit\native\chacha20_impl.c
; Line 27
	movzx	edx, BYTE PTR [rcx+2]
	movzx	eax, BYTE PTR [rcx+3]
	shl	eax, 8
	or	eax, edx
	movzx	edx, BYTE PTR [rcx+1]
	movzx	ecx, BYTE PTR [rcx]
	shl	eax, 8
	or	eax, edx
	shl	eax, 8
	or	eax, ecx
; Line 31
	ret	0
load32_le ENDP
_TEXT	ENDS
; Function compile flags: /Ogtpy
;	COMDAT rotl32
_TEXT	SEGMENT
v$ = 8
c$ = 16
rotl32	PROC						; COMDAT
; File C:\MyDartProjects\asmjit\benchmark\asmjit\native\chacha20_impl.c
; Line 21
	mov	eax, ecx
; Line 22
	movzx	ecx, dl
	rol	eax, cl
; Line 23
	ret	0
rotl32	ENDP
_TEXT	ENDS
END
